target datalayout = "e-m:e-p270:32:32-p271:32:32-p272:64:64-i64:64-i128:128-f80:128-n8:16:32:64-S128"
target triple = "x86_64-pc-linux-gnu"

%struct.nstime_t = type { i64, i32 }
%struct.bp_bundle_t = type { i32, i8, %struct.nstime_t, ptr, ptr, ptr, ptr, ptr, ptr, ptr }

; Function Attrs: nounwind null_pointer_is_valid sspstrong uwtable
define internal i32 @bp_bundle_frameloc_compare(ptr noundef %0, ptr noundef %1) #0 {
  %3 = alloca i32, align 4
  %4 = alloca ptr, align 8
  %5 = alloca ptr, align 8
  %6 = alloca ptr, align 8
  %7 = alloca ptr, align 8
  %8 = alloca i32, align 4
  store ptr %0, ptr %4, align 8
  store ptr %1, ptr %5, align 8
  call void @llvm.lifetime.start.p0(i64 8, ptr %6) #18
  %9 = load ptr, ptr %4, align 8
  store ptr %9, ptr %6, align 8
  call void @llvm.lifetime.start.p0(i64 8, ptr %7) #18
  %10 = load ptr, ptr %5, align 8
  store ptr %10, ptr %7, align 8
  %11 = load ptr, ptr %6, align 8
  %12 = getelementptr inbounds nuw %struct.bp_bundle_t, ptr %11, i32 0, i32 0
  %13 = load i32, ptr %12, align 8
  %14 = load ptr, ptr %7, align 8
  %15 = getelementptr inbounds nuw %struct.bp_bundle_t, ptr %14, i32 0, i32 0
  %16 = load i32, ptr %15, align 8
  %17 = icmp ult i32 %13, %16
  br i1 %17, label %18, label %19

18:                                               ; preds = %2
  store i32 -1, ptr %3, align 4
  store i32 1, ptr %8, align 4
  br label %51

19:                                               ; preds = %2
  %20 = load ptr, ptr %6, align 8
  %21 = getelementptr inbounds nuw %struct.bp_bundle_t, ptr %20, i32 0, i32 0
  %22 = load i32, ptr %21, align 8
  %23 = load ptr, ptr %7, align 8
  %24 = getelementptr inbounds nuw %struct.bp_bundle_t, ptr %23, i32 0, i32 0
  %25 = load i32, ptr %24, align 8
  %26 = icmp ugt i32 %22, %25
  br i1 %26, label %27, label %28

27:                                               ; preds = %19
  store i32 1, ptr %3, align 4
  store i32 1, ptr %8, align 4
  br label %51

28:                                               ; preds = %19
  %29 = load ptr, ptr %6, align 8
  %30 = getelementptr inbounds nuw %struct.bp_bundle_t, ptr %29, i32 0, i32 1
  %31 = load i8, ptr %30, align 4
  %32 = zext i8 %31 to i32
  %33 = load ptr, ptr %7, align 8
  %34 = getelementptr inbounds nuw %struct.bp_bundle_t, ptr %33, i32 0, i32 1
  %35 = load i8, ptr %34, align 4
  %36 = zext i8 %35 to i32
  %37 = icmp slt i32 %32, %36
  br i1 %37, label %38, label %39

38:                                               ; preds = %28
  store i32 -1, ptr %3, align 4
  store i32 1, ptr %8, align 4
  br label %51

39:                                               ; preds = %28
  %40 = load ptr, ptr %6, align 8
  %41 = getelementptr inbounds nuw %struct.bp_bundle_t, ptr %40, i32 0, i32 1
  %42 = load i8, ptr %41, align 4
  %43 = zext i8 %42 to i32
  %44 = load ptr, ptr %7, align 8
  %45 = getelementptr inbounds nuw %struct.bp_bundle_t, ptr %44, i32 0, i32 1
  %46 = load i8, ptr %45, align 4
  %47 = zext i8 %46 to i32
  %48 = icmp sgt i32 %43, %47
  br i1 %48, label %49, label %50

49:                                               ; preds = %39
  store i32 1, ptr %3, align 4
  store i32 1, ptr %8, align 4
  br label %51

50:                                               ; preds = %39
  store i32 0, ptr %3, align 4
  store i32 1, ptr %8, align 4
  br label %51

51:                                               ; preds = %50, %49, %38, %27, %18
  call void @llvm.lifetime.end.p0(i64 8, ptr %7) #18
  call void @llvm.lifetime.end.p0(i64 8, ptr %6) #18
  %52 = load i32, ptr %3, align 4
  ret i32 %52
}